; Function Attrs: mustprogress nofree norecurse nosync nounwind willreturn memory(argmem: read) uwtable
define noundef range(i32 0, 367) i32 @_ZNK6icu_7717GregorianCalendar19handleGetYearLengthEiR10UErrorCode(ptr noundef nonnull readonly align 8 captures(none) dereferenceable(222) %0, i32 noundef %1, ptr noundef nonnull readonly align 4 captures(none) dereferenceable(4) %2) unnamed_addr #7 align 2 {
  %4 = load i32, ptr %2, align 4, !tbaa !25
  %5 = icmp slt i32 %4, 1
  br i1 %5, label %6, label %15

6:                                                ; preds = %3
  %7 = getelementptr inbounds nuw i8, ptr %0, i64 216
  %8 = load i32, ptr %7, align 8, !tbaa !22
  %.fr = freeze i32 %8
  %.not.i = icmp slt i32 %1, %.fr
  %9 = and i32 %1, 3
  %10 = icmp eq i32 %9, 0
  %.not6.i = xor i1 %10, true
  %brmerge.i = or i1 %.not.i, %.not6.i
  br i1 %brmerge.i, label %_ZNK6icu_7717GregorianCalendar10isLeapYearEi.exit, label %11

11:                                               ; preds = %6
  %12 = srem i32 %1, 100
  %.not5.i = icmp ne i32 %12, 0
  %13 = srem i32 %1, 400
  %14 = icmp eq i32 %13, 0
  %or.cond = or i1 %.not5.i, %14
  br i1 %or.cond, label %_ZNK6icu_7717GregorianCalendar10isLeapYearEi.exit.thread, label %15

_ZNK6icu_7717GregorianCalendar10isLeapYearEi.exit: ; preds = %6
  %.mux.i = and i1 %10, %.not.i
  br i1 %.mux.i, label %_ZNK6icu_7717GregorianCalendar10isLeapYearEi.exit.thread, label %15

_ZNK6icu_7717GregorianCalendar10isLeapYearEi.exit.thread: ; preds = %11, %_ZNK6icu_7717GregorianCalendar10isLeapYearEi.exit
  br label %15

15:                                               ; preds = %11, %_ZNK6icu_7717GregorianCalendar10isLeapYearEi.exit.thread, %_ZNK6icu_7717GregorianCalendar10isLeapYearEi.exit, %3
  %.0 = phi i32 [ 0, %3 ], [ 366, %_ZNK6icu_7717GregorianCalendar10isLeapYearEi.exit.thread ], [ 365, %_ZNK6icu_7717GregorianCalendar10isLeapYearEi.exit ], [ 365, %11 ]
  ret i32 %.0
}